target datalayout = "e-m:e-p270:32:32-p271:32:32-p272:64:64-i64:64-i128:128-f80:128-n8:16:32:64-S128"
target triple = "x86_64-pc-linux-gnu"

%struct.URLContext = type { ptr, ptr, ptr, ptr, i32, i32, i32, i32, %struct.AVIOInterruptCB, i64, ptr, ptr, i32 }
%struct.AVIOInterruptCB = type { ptr, ptr }
%struct.HLSContext = type { [4096 x i8], i64, i32, i32, i32, ptr, i32, ptr, i32, ptr, i64 }

; Function Attrs: nounwind uwtable
define internal void @free_variant_list(ptr noundef %0) #0 {
  %2 = alloca ptr, align 8
  %3 = alloca i32, align 4
  store ptr %0, ptr %2, align 8, !tbaa !19
  call void @llvm.lifetime.start.p0(i64 4, ptr %3) #8
  store i32 0, ptr %3, align 4, !tbaa !11
  br label %4

4:                                                ; preds = %17, %1
  %5 = load i32, ptr %3, align 4, !tbaa !11
  %6 = load ptr, ptr %2, align 8, !tbaa !19
  %7 = getelementptr inbounds nuw %struct.HLSContext, ptr %6, i32 0, i32 6
  %8 = load i32, ptr %7, align 8, !tbaa !27
  %9 = icmp slt i32 %5, %8
  br i1 %9, label %10, label %20

10:                                               ; preds = %4
  %11 = load ptr, ptr %2, align 8, !tbaa !19
  %12 = getelementptr inbounds nuw %struct.HLSContext, ptr %11, i32 0, i32 7
  %13 = load ptr, ptr %12, align 8, !tbaa !28
  %14 = load i32, ptr %3, align 4, !tbaa !11
  %15 = sext i32 %14 to i64
  %16 = getelementptr inbounds ptr, ptr %13, i64 %15
  call void @av_freep(ptr noundef %16)
  br label %17

17:                                               ; preds = %10
  %18 = load i32, ptr %3, align 4, !tbaa !11
  %19 = add nsw i32 %18, 1
  store i32 %19, ptr %3, align 4, !tbaa !11
  br label %4, !llvm.loop !66

20:                                               ; preds = %4
  %21 = load ptr, ptr %2, align 8, !tbaa !19
  %22 = getelementptr inbounds nuw %struct.HLSContext, ptr %21, i32 0, i32 7
  call void @av_freep(ptr noundef %22)
  %23 = load ptr, ptr %2, align 8, !tbaa !19
  %24 = getelementptr inbounds nuw %struct.HLSContext, ptr %23, i32 0, i32 6
  store i32 0, ptr %24, align 8, !tbaa !27
  call void @llvm.lifetime.end.p0(i64 4, ptr %3) #8
  ret void
}

; Function Attrs: nounwind uwtable
define internal void @free_segment_list(ptr noundef %0) #0 {
  %2 = alloca ptr, align 8
  %3 = alloca i32, align 4
  store ptr %0, ptr %2, align 8, !tbaa !19
  call void @llvm.lifetime.start.p0(i64 4, ptr %3) #8
  store i32 0, ptr %3, align 4, !tbaa !11
  br label %4

4:                                                ; preds = %17, %1
  %5 = load i32, ptr %3, align 4, !tbaa !11
  %6 = load ptr, ptr %2, align 8, !tbaa !19
  %7 = getelementptr inbounds nuw %struct.HLSContext, ptr %6, i32 0, i32 4
  %8 = load i32, ptr %7, align 8, !tbaa !22
  %9 = icmp slt i32 %5, %8
  br i1 %9, label %10, label %20

10:                                               ; preds = %4
  %11 = load ptr, ptr %2, align 8, !tbaa !19
  %12 = getelementptr inbounds nuw %struct.HLSContext, ptr %11, i32 0, i32 5
  %13 = load ptr, ptr %12, align 8, !tbaa !39
  %14 = load i32, ptr %3, align 4, !tbaa !11
  %15 = sext i32 %14 to i64
  %16 = getelementptr inbounds ptr, ptr %13, i64 %15
  call void @av_freep(ptr noundef %16)
  br label %17

17:                                               ; preds = %10
  %18 = load i32, ptr %3, align 4, !tbaa !11
  %19 = add nsw i32 %18, 1
  store i32 %19, ptr %3, align 4, !tbaa !11
  br label %4, !llvm.loop !59

20:                                               ; preds = %4
  %21 = load ptr, ptr %2, align 8, !tbaa !19
  %22 = getelementptr inbounds nuw %struct.HLSContext, ptr %21, i32 0, i32 5
  call void @av_freep(ptr noundef %22)
  %23 = load ptr, ptr %2, align 8, !tbaa !19
  %24 = getelementptr inbounds nuw %struct.HLSContext, ptr %23, i32 0, i32 4
  store i32 0, ptr %24, align 8, !tbaa !22
  call void @llvm.lifetime.end.p0(i64 4, ptr %3) #8
  ret void
}

; Function Attrs: nounwind uwtable
define internal i32 @hls_close(ptr noundef %0) #0 {
  %2 = alloca ptr, align 8
  %3 = alloca ptr, align 8
  store ptr %0, ptr %2, align 8, !tbaa !4
  call void @llvm.lifetime.start.p0(i64 8, ptr %3) #8
  %4 = load ptr, ptr %2, align 8, !tbaa !4
  %5 = getelementptr inbounds nuw %struct.URLContext, ptr %4, i32 0, i32 2
  %6 = load ptr, ptr %5, align 8, !tbaa !13
  store ptr %6, ptr %3, align 8, !tbaa !19
  %7 = load ptr, ptr %3, align 8, !tbaa !19
  call void @free_segment_list(ptr noundef %7)
  %8 = load ptr, ptr %3, align 8, !tbaa !19
  call void @free_variant_list(ptr noundef %8)
  %9 = load ptr, ptr %3, align 8, !tbaa !19
  %10 = getelementptr inbounds nuw %struct.HLSContext, ptr %9, i32 0, i32 9
  %11 = call i32 @ffurl_closep(ptr noundef %10)
  call void @llvm.lifetime.end.p0(i64 8, ptr %3) #8
  ret i32 0
}