; Function Attrs: nounwind uwtable
define internal noundef i32 @hls_close(ptr noundef readonly captures(none) %0) #0 {
  %2 = getelementptr inbounds nuw i8, ptr %0, i64 16
  %3 = load ptr, ptr %2, align 8, !tbaa !4
  %4 = getelementptr inbounds nuw i8, ptr %3, i64 4112
  %5 = load i32, ptr %4, align 8, !tbaa !17
  %6 = icmp sgt i32 %5, 0
  br i1 %6, label %.lr.ph.i, label %free_segment_list.exit

.lr.ph.i:                                         ; preds = %1
  %7 = getelementptr inbounds nuw i8, ptr %3, i64 4120
  br label %8

8:                                                ; preds = %8, %.lr.ph.i
  %indvars.iv.i = phi i64 [ 0, %.lr.ph.i ], [ %indvars.iv.next.i, %8 ]
  %9 = load ptr, ptr %7, align 8, !tbaa !34
  %10 = getelementptr inbounds nuw ptr, ptr %9, i64 %indvars.iv.i
  tail call void @av_freep(ptr noundef %10) #7
  %indvars.iv.next.i = add nuw nsw i64 %indvars.iv.i, 1
  %11 = load i32, ptr %4, align 8, !tbaa !17
  %12 = sext i32 %11 to i64
  %13 = icmp slt i64 %indvars.iv.next.i, %12
  br i1 %13, label %8, label %free_segment_list.exit, !llvm.loop !35

free_segment_list.exit:                           ; preds = %8, %1
  %14 = getelementptr inbounds nuw i8, ptr %3, i64 4120
  tail call void @av_freep(ptr noundef nonnull %14) #7
  store i32 0, ptr %4, align 8, !tbaa !17
  %15 = getelementptr inbounds nuw i8, ptr %3, i64 4128
  %16 = load i32, ptr %15, align 8, !tbaa !23
  %17 = icmp sgt i32 %16, 0
  br i1 %17, label %.lr.ph.i4, label %free_variant_list.exit

.lr.ph.i4:                                        ; preds = %free_segment_list.exit
  %18 = getelementptr inbounds nuw i8, ptr %3, i64 4136
  br label %19

19:                                               ; preds = %19, %.lr.ph.i4
  %indvars.iv.i5 = phi i64 [ 0, %.lr.ph.i4 ], [ %indvars.iv.next.i6, %19 ]
  %20 = load ptr, ptr %18, align 8, !tbaa !24
  %21 = getelementptr inbounds nuw ptr, ptr %20, i64 %indvars.iv.i5
  tail call void @av_freep(ptr noundef %21) #7
  %indvars.iv.next.i6 = add nuw nsw i64 %indvars.iv.i5, 1
  %22 = load i32, ptr %15, align 8, !tbaa !23
  %23 = sext i32 %22 to i64
  %24 = icmp slt i64 %indvars.iv.next.i6, %23
  br i1 %24, label %19, label %free_variant_list.exit, !llvm.loop !36

free_variant_list.exit:                           ; preds = %19, %free_segment_list.exit
  %25 = getelementptr inbounds nuw i8, ptr %3, i64 4136
  tail call void @av_freep(ptr noundef nonnull %25) #7
  store i32 0, ptr %15, align 8, !tbaa !23
  %26 = getelementptr inbounds nuw i8, ptr %3, i64 4152
  %27 = tail call i32 @ffurl_closep(ptr noundef nonnull %26) #7
  ret i32 0
}